; ModuleID = '40/187.c'
source_filename = "40/187.c"
target datalayout = "e-m:e-p270:32:32-p271:32:32-p272:64:64-i64:64-f80:128-n8:16:32:64-S128"
target triple = "x86_64-pc-linux-gnu"

@.str = private unnamed_addr constant [16 x i8] c"%lf%lf%lf%lf%lf\00", align 1
@.str.1 = private unnamed_addr constant [14 x i8] c"Invalid input\00", align 1
@.str.2 = private unnamed_addr constant [6 x i8] c"%.4lf\00", align 1

; Function Attrs: noinline nounwind uwtable
define dso_local double @main() #0 {
  %1 = alloca double, align 8
  %2 = alloca double, align 8
  %3 = alloca double, align 8
  %4 = alloca double, align 8
  %5 = alloca double, align 8
  %6 = alloca double, align 8
  %7 = alloca double, align 8
  %8 = alloca double, align 8
  %9 = alloca double, align 8
  %10 = call i32 (i8*, ...) @__isoc99_scanf(i8* getelementptr inbounds ([16 x i8], [16 x i8]* @.str, i64 0, i64 0), double* %5, double* %6, double* %7, double* %8, double* %9)
  %11 = load double, double* %9, align 8
  %12 = fmul double %11, 5.000000e-01
  store double %12, double* %4, align 8
  %13 = load double, double* %4, align 8
  %14 = fmul double %13, 2.000000e+00
  %15 = fmul double %14, 0x400921FB4D12D84A
  %16 = fdiv double %15, 3.600000e+02
  %17 = call double @cos(double %16) #3
  store double %17, double* %1, align 8
  %18 = load double, double* %5, align 8
  %19 = load double, double* %6, align 8
  %20 = fadd double %18, %19
  %21 = load double, double* %7, align 8
  %22 = fadd double %20, %21
  %23 = load double, double* %8, align 8
  %24 = fadd double %22, %23
  %25 = fmul double 5.000000e-01, %24
  store double %25, double* %2, align 8
  %26 = load double, double* %2, align 8
  %27 = load double, double* %5, align 8
  %28 = fsub double %26, %27
  %29 = load double, double* %2, align 8
  %30 = load double, double* %6, align 8
  %31 = fsub double %29, %30
  %32 = fmul double %28, %31
  %33 = load double, double* %2, align 8
  %34 = load double, double* %7, align 8
  %35 = fsub double %33, %34
  %36 = fmul double %32, %35
  %37 = load double, double* %2, align 8
  %38 = load double, double* %8, align 8
  %39 = fsub double %37, %38
  %40 = fmul double %36, %39
  %41 = load double, double* %5, align 8
  %42 = load double, double* %6, align 8
  %43 = fmul double %41, %42
  %44 = load double, double* %7, align 8
  %45 = fmul double %43, %44
  %46 = load double, double* %8, align 8
  %47 = fmul double %45, %46
  %48 = load double, double* %1, align 8
  %49 = fmul double %47, %48
  %50 = load double, double* %1, align 8
  %51 = fmul double %49, %50
  %52 = fsub double %40, %51
  %53 = fcmp olt double %52, 0.000000e+00
  br i1 %53, label %54, label %56

54:                                               ; preds = %0
  %55 = call i32 (i8*, ...) @printf(i8* getelementptr inbounds ([14 x i8], [14 x i8]* @.str.1, i64 0, i64 0))
  br label %87

56:                                               ; preds = %0
  %57 = load double, double* %2, align 8
  %58 = load double, double* %5, align 8
  %59 = fsub double %57, %58
  %60 = load double, double* %2, align 8
  %61 = load double, double* %6, align 8
  %62 = fsub double %60, %61
  %63 = fmul double %59, %62
  %64 = load double, double* %2, align 8
  %65 = load double, double* %7, align 8
  %66 = fsub double %64, %65
  %67 = fmul double %63, %66
  %68 = load double, double* %2, align 8
  %69 = load double, double* %8, align 8
  %70 = fsub double %68, %69
  %71 = fmul double %67, %70
  %72 = load double, double* %5, align 8
  %73 = load double, double* %6, align 8
  %74 = fmul double %72, %73
  %75 = load double, double* %7, align 8
  %76 = fmul double %74, %75
  %77 = load double, double* %8, align 8
  %78 = fmul double %76, %77
  %79 = load double, double* %1, align 8
  %80 = fmul double %78, %79
  %81 = load double, double* %1, align 8
  %82 = fmul double %80, %81
  %83 = fsub double %71, %82
  %84 = call double @sqrt(double %83) #3
  store double %84, double* %3, align 8
  %85 = load double, double* %3, align 8
  %86 = call i32 (i8*, ...) @printf(i8* getelementptr inbounds ([6 x i8], [6 x i8]* @.str.2, i64 0, i64 0), double %85)
  br label %87

87:                                               ; preds = %56, %54
  ret double 0.000000e+00
}

declare dso_local i32 @__isoc99_scanf(i8*, ...) #1

; Function Attrs: nounwind
declare dso_local double @cos(double) #2

declare dso_local i32 @printf(i8*, ...) #1

; Function Attrs: nounwind
declare dso_local double @sqrt(double) #2


!llvm.module.flags = !{!0}
!llvm.ident = !{!1}

!0 = !{i32 1, !"wchar_size", i32 4}
!1 = !{!"clang version 10.0.0-4ubuntu1 "}
